; Function Attrs: mustprogress nounwind uwtable
define void @_ZN6Assimp11SMDImporterC2Ev(ptr noundef nonnull align 8 dereferenceable(226) %0) unnamed_addr #0 align 2 {
  tail call void @_ZN6Assimp12BaseImporterC2Ev(ptr noundef nonnull align 8 dereferenceable(72) %0) #28
  store ptr getelementptr inbounds nuw inrange(-16, 48) (i8, ptr @_ZTVN6Assimp11SMDImporterE, i64 16), ptr %0, align 8
  %2 = getelementptr inbounds nuw i8, ptr %0, i64 72
  store i32 0, ptr %2, align 8
  %3 = getelementptr inbounds nuw i8, ptr %0, i64 80
  %4 = getelementptr inbounds nuw i8, ptr %0, i64 128
  %5 = getelementptr inbounds nuw i8, ptr %0, i64 200
  tail call void @llvm.memset.p0.i64(ptr noundef nonnull align 8 dereferenceable(44) %3, i8 0, i64 44, i1 false)
  tail call void @llvm.memset.p0.i64(ptr noundef nonnull align 8 dereferenceable(72) %4, i8 0, i64 72, i1 false)
  store i32 2147483647, ptr %5, align 8
  %6 = getelementptr inbounds nuw i8, ptr %0, i64 208
  store double 0.000000e+00, ptr %6, align 8
  %7 = getelementptr inbounds nuw i8, ptr %0, i64 216
  store i8 0, ptr %7, align 8
  %8 = getelementptr inbounds nuw i8, ptr %0, i64 220
  store i32 -1, ptr %8, align 4
  %9 = getelementptr inbounds nuw i8, ptr %0, i64 224
  store i8 1, ptr %9, align 8
  %10 = getelementptr inbounds nuw i8, ptr %0, i64 225
  store i8 0, ptr %10, align 1
  ret void
}